target datalayout = "e-m:e-p270:32:32-p271:32:32-p272:64:64-i64:64-i128:128-f80:128-n8:16:32:64-S128"
target triple = "x86_64-unknown-linux-gnu"

%struct.X509_pubkey_st = type { ptr, ptr, ptr }
%struct.asn1_string_st = type { i32, i32, ptr, i64 }

; Function Attrs: nounwind uwtable
define hidden i32 @X509_PUBKEY_set0_param(ptr noundef %pub, ptr noundef %aobj, i32 noundef %ptype, ptr noundef %pval, ptr noundef %penc, i32 noundef %penclen) #0 {
entry:
  %retval = alloca i32, align 4
  %pub.addr = alloca ptr, align 8
  %aobj.addr = alloca ptr, align 8
  %ptype.addr = alloca i32, align 4
  %pval.addr = alloca ptr, align 8
  %penc.addr = alloca ptr, align 8
  %penclen.addr = alloca i32, align 4
  store ptr %pub, ptr %pub.addr, align 8
  store ptr %aobj, ptr %aobj.addr, align 8
  store i32 %ptype, ptr %ptype.addr, align 4
  store ptr %pval, ptr %pval.addr, align 8
  store ptr %penc, ptr %penc.addr, align 8
  store i32 %penclen, ptr %penclen.addr, align 4
  %0 = load ptr, ptr %pub.addr, align 8
  %algor = getelementptr inbounds %struct.X509_pubkey_st, ptr %0, i32 0, i32 0
  %1 = load ptr, ptr %algor, align 8
  %2 = load ptr, ptr %aobj.addr, align 8
  %3 = load i32, ptr %ptype.addr, align 4
  %4 = load ptr, ptr %pval.addr, align 8
  %call = call i32 @X509_ALGOR_set0(ptr noundef %1, ptr noundef %2, i32 noundef %3, ptr noundef %4)
  %tobool = icmp ne i32 %call, 0
  br i1 %tobool, label %if.end, label %if.then

if.then:                                          ; preds = %entry
  store i32 0, ptr %retval, align 4
  br label %return

if.end:                                           ; preds = %entry
  %5 = load ptr, ptr %penc.addr, align 8
  %tobool1 = icmp ne ptr %5, null
  br i1 %tobool1, label %if.then2, label %if.end14

if.then2:                                         ; preds = %if.end
  %6 = load ptr, ptr %pub.addr, align 8
  %public_key = getelementptr inbounds %struct.X509_pubkey_st, ptr %6, i32 0, i32 1
  %7 = load ptr, ptr %public_key, align 8
  %data = getelementptr inbounds %struct.asn1_string_st, ptr %7, i32 0, i32 2
  %8 = load ptr, ptr %data, align 8
  %tobool3 = icmp ne ptr %8, null
  br i1 %tobool3, label %if.then4, label %if.end7

if.then4:                                         ; preds = %if.then2
  %9 = load ptr, ptr %pub.addr, align 8
  %public_key5 = getelementptr inbounds %struct.X509_pubkey_st, ptr %9, i32 0, i32 1
  %10 = load ptr, ptr %public_key5, align 8
  %data6 = getelementptr inbounds %struct.asn1_string_st, ptr %10, i32 0, i32 2
  %11 = load ptr, ptr %data6, align 8
  call void @free(ptr noundef %11) #3
  br label %if.end7

if.end7:                                          ; preds = %if.then4, %if.then2
  %12 = load ptr, ptr %penc.addr, align 8
  %13 = load ptr, ptr %pub.addr, align 8
  %public_key8 = getelementptr inbounds %struct.X509_pubkey_st, ptr %13, i32 0, i32 1
  %14 = load ptr, ptr %public_key8, align 8
  %data9 = getelementptr inbounds %struct.asn1_string_st, ptr %14, i32 0, i32 2
  store ptr %12, ptr %data9, align 8
  %15 = load i32, ptr %penclen.addr, align 4
  %16 = load ptr, ptr %pub.addr, align 8
  %public_key10 = getelementptr inbounds %struct.X509_pubkey_st, ptr %16, i32 0, i32 1
  %17 = load ptr, ptr %public_key10, align 8
  %length = getelementptr inbounds %struct.asn1_string_st, ptr %17, i32 0, i32 0
  store i32 %15, ptr %length, align 8
  %18 = load ptr, ptr %pub.addr, align 8
  %public_key11 = getelementptr inbounds %struct.X509_pubkey_st, ptr %18, i32 0, i32 1
  %19 = load ptr, ptr %public_key11, align 8
  %flags = getelementptr inbounds %struct.asn1_string_st, ptr %19, i32 0, i32 3
  %20 = load i64, ptr %flags, align 8
  %and = and i64 %20, -16
  store i64 %and, ptr %flags, align 8
  %21 = load ptr, ptr %pub.addr, align 8
  %public_key12 = getelementptr inbounds %struct.X509_pubkey_st, ptr %21, i32 0, i32 1
  %22 = load ptr, ptr %public_key12, align 8
  %flags13 = getelementptr inbounds %struct.asn1_string_st, ptr %22, i32 0, i32 3
  %23 = load i64, ptr %flags13, align 8
  %or = or i64 %23, 8
  store i64 %or, ptr %flags13, align 8
  br label %if.end14

if.end14:                                         ; preds = %if.end7, %if.end
  store i32 1, ptr %retval, align 4
  br label %return

return:                                           ; preds = %if.end14, %if.then
  %24 = load i32, ptr %retval, align 4
  ret i32 %24
}