; Function Attrs: nounwind uwtable
define hidden range(i32 0, 2) i32 @X509_PUBKEY_set0_param(ptr noundef readonly captures(none) %pub, ptr noundef %aobj, i32 noundef %ptype, ptr noundef %pval, ptr noundef %penc, i32 noundef %penclen) local_unnamed_addr #0 {
entry:
  %0 = load ptr, ptr %pub, align 8
  %call = tail call i32 @X509_ALGOR_set0(ptr noundef %0, ptr noundef %aobj, i32 noundef %ptype, ptr noundef %pval) #5
  %tobool.not = icmp eq i32 %call, 0
  br i1 %tobool.not, label %return, label %if.end

if.end:                                           ; preds = %entry
  %tobool1.not = icmp eq ptr %penc, null
  br i1 %tobool1.not, label %return, label %if.then2

if.then2:                                         ; preds = %if.end
  %public_key = getelementptr inbounds nuw i8, ptr %pub, i64 8
  %1 = load ptr, ptr %public_key, align 8
  %data = getelementptr inbounds nuw i8, ptr %1, i64 8
  %2 = load ptr, ptr %data, align 8
  %tobool3.not = icmp eq ptr %2, null
  br i1 %tobool3.not, label %if.end7, label %if.then4

if.then4:                                         ; preds = %if.then2
  tail call void @free(ptr noundef nonnull %2) #5
  %.pre = load ptr, ptr %public_key, align 8
  br label %if.end7

if.end7:                                          ; preds = %if.then4, %if.then2
  %3 = phi ptr [ %.pre, %if.then4 ], [ %1, %if.then2 ]
  %data9 = getelementptr inbounds nuw i8, ptr %3, i64 8
  store ptr %penc, ptr %data9, align 8
  %4 = load ptr, ptr %public_key, align 8
  store i32 %penclen, ptr %4, align 8
  %5 = load ptr, ptr %public_key, align 8
  %flags = getelementptr inbounds nuw i8, ptr %5, i64 16
  %6 = load i64, ptr %flags, align 8
  %and = and i64 %6, -16
  store i64 %and, ptr %flags, align 8
  %7 = load ptr, ptr %public_key, align 8
  %flags13 = getelementptr inbounds nuw i8, ptr %7, i64 16
  %8 = load i64, ptr %flags13, align 8
  %or = or i64 %8, 8
  store i64 %or, ptr %flags13, align 8
  br label %return

return:                                           ; preds = %if.end, %if.end7, %entry
  %retval.0 = phi i32 [ 0, %entry ], [ 1, %if.end7 ], [ 1, %if.end ]
  ret i32 %retval.0
}